; ModuleID = 'bench/cvc5/original/rewrite_proof_status.ll'
source_filename = "bench/cvc5/original/rewrite_proof_status.ll"
target datalayout = "e-m:e-p270:32:32-p271:32:32-p272:64:64-i64:64-i128:128-f80:128-n8:16:32:64-S128"
target triple = "x86_64-pc-linux-gnu"

%"class.std::ios_base::Init" = type { i8 }
%"class.cvc5::internal::FatalStream" = type { i8 }

@_ZStL8__ioinit = internal global %"class.std::ios_base::Init" zeroinitializer, align 1
@__dso_handle = external hidden global i8
@.str = private unnamed_addr constant [5 x i8] c"FAIL\00", align 1
@.str.1 = private unnamed_addr constant [5 x i8] c"REFL\00", align 1
@.str.2 = private unnamed_addr constant [5 x i8] c"EVAL\00", align 1
@.str.3 = private unnamed_addr constant [6 x i8] c"TRANS\00", align 1
@.str.4 = private unnamed_addr constant [5 x i8] c"CONG\00", align 1
@.str.5 = private unnamed_addr constant [10 x i8] c"CONG_EVAL\00", align 1
@.str.6 = private unnamed_addr constant [10 x i8] c"TRUE_ELIM\00", align 1
@.str.7 = private unnamed_addr constant [11 x i8] c"TRUE_INTRO\00", align 1
@.str.8 = private unnamed_addr constant [16 x i8] c"ARITH_POLY_NORM\00", align 1
@.str.9 = private unnamed_addr constant [9 x i8] c"ACI_NORM\00", align 1
@.str.10 = private unnamed_addr constant [4 x i8] c"DSL\00", align 1
@.str.11 = private unnamed_addr constant [15 x i8] c"THEORY_REWRITE\00", align 1
@__PRETTY_FUNCTION__._ZN4cvc58internal8rewriter8toStringENS1_18RewriteProofStatusE = private unnamed_addr constant [67 x i8] c"const char *cvc5::internal::rewriter::toString(RewriteProofStatus)\00", align 1
@.str.12 = private unnamed_addr constant [125 x i8] c"generated/home/dtcxzyw/WorkSpace/Projects/compilers/llvm-opt-benchmark/bench/cvc5/cvc5/src/rewriter/rewrite_proof_status.cpp\00", align 1
@.str.13 = private unnamed_addr constant [26 x i8] c"Unreachable code reached \00", align 1
@llvm.global_ctors = appending global [1 x { i32, ptr, ptr }] [{ i32, ptr, ptr } { i32 65535, ptr @_GLOBAL__sub_I_rewrite_proof_status.cpp, ptr null }]
@switch.table._ZN4cvc58internal8rewriter8toStringENS1_18RewriteProofStatusE = private unnamed_addr constant [12 x ptr] [ptr @.str, ptr @.str.1, ptr @.str.2, ptr @.str.3, ptr @.str.4, ptr @.str.5, ptr @.str.6, ptr @.str.7, ptr @.str.8, ptr @.str.9, ptr @.str.10, ptr @.str.11], align 8

declare void @_ZNSt8ios_base4InitC1Ev(ptr noundef nonnull align 1 dereferenceable(1)) unnamed_addr #0

; Function Attrs: nounwind
declare void @_ZNSt8ios_base4InitD1Ev(ptr noundef nonnull align 1 dereferenceable(1)) unnamed_addr #1

; Function Attrs: nofree nounwind
declare i32 @__cxa_atexit(ptr, ptr, ptr) local_unnamed_addr #2

; Function Attrs: mustprogress uwtable
define hidden noundef nonnull ptr @_ZN4cvc58internal8rewriter8toStringENS1_18RewriteProofStatusE(i32 noundef %0) local_unnamed_addr #3 personality ptr @__gxx_personality_v0 {
  %2 = alloca %"class.cvc5::internal::FatalStream", align 1
  %3 = icmp ult i32 %0, 12
  br i1 %3, label %switch.lookup, label %4

4:                                                ; preds = %1
  call void @llvm.lifetime.start.p0(i64 1, ptr nonnull %2) #9
  call void @_ZN4cvc58internal11FatalStreamC1EPKcS3_i(ptr noundef nonnull align 1 dereferenceable(1) %2, ptr noundef nonnull @__PRETTY_FUNCTION__._ZN4cvc58internal8rewriter8toStringENS1_18RewriteProofStatusE, ptr noundef nonnull @.str.12, i32 noundef 37)
  %5 = invoke noundef nonnull align 8 dereferenceable(8) ptr @_ZN4cvc58internal11FatalStream6streamEv(ptr noundef nonnull align 1 dereferenceable(1) %2)
          to label %6 unwind label %9

6:                                                ; preds = %4
  %7 = invoke noundef nonnull align 8 dereferenceable(8) ptr @_ZStlsISt11char_traitsIcEERSt13basic_ostreamIcT_ES5_PKc(ptr noundef nonnull align 8 dereferenceable(8) %5, ptr noundef nonnull @.str.13)
          to label %8 unwind label %9

8:                                                ; preds = %6
  call void @_ZN4cvc58internal11FatalStreamD1Ev(ptr noundef nonnull align 1 dereferenceable(1) %2) #10
  unreachable

9:                                                ; preds = %6, %4
  %10 = landingpad { ptr, i32 }
          cleanup
  call void @_ZN4cvc58internal11FatalStreamD1Ev(ptr noundef nonnull align 1 dereferenceable(1) %2) #10
  unreachable

switch.lookup:                                    ; preds = %1
  %11 = zext nneg i32 %0 to i64
  %switch.gep = getelementptr inbounds nuw [12 x ptr], ptr @switch.table._ZN4cvc58internal8rewriter8toStringENS1_18RewriteProofStatusE, i64 0, i64 %11
  %switch.load = load ptr, ptr %switch.gep, align 8
  ret ptr %switch.load
}

; Function Attrs: inlinehint mustprogress uwtable
declare noundef nonnull align 8 dereferenceable(8) ptr @_ZStlsISt11char_traitsIcEERSt13basic_ostreamIcT_ES5_PKc(ptr noundef nonnull align 8 dereferenceable(8), ptr noundef) local_unnamed_addr #4

; Function Attrs: mustprogress nocallback nofree nosync nounwind willreturn memory(argmem: readwrite)
declare void @llvm.lifetime.start.p0(i64 immarg, ptr captures(none)) #5

declare void @_ZN4cvc58internal11FatalStreamC1EPKcS3_i(ptr noundef nonnull align 1 dereferenceable(1), ptr noundef, ptr noundef, i32 noundef) unnamed_addr #0

declare noundef nonnull align 8 dereferenceable(8) ptr @_ZN4cvc58internal11FatalStream6streamEv(ptr noundef nonnull align 1 dereferenceable(1)) local_unnamed_addr #0

declare i32 @__gxx_personality_v0(...)

; Function Attrs: noreturn nounwind
declare void @_ZN4cvc58internal11FatalStreamD1Ev(ptr noundef nonnull align 1 dereferenceable(1)) unnamed_addr #6

; Function Attrs: mustprogress uwtable
define hidden noundef nonnull align 8 dereferenceable(8) ptr @_ZN4cvc58internal8rewriterlsERSoNS1_18RewriteProofStatusE(ptr noundef nonnull returned align 8 dereferenceable(8) %0, i32 noundef %1) local_unnamed_addr #3 {
  %3 = tail call noundef ptr @_ZN4cvc58internal8rewriter8toStringENS1_18RewriteProofStatusE(i32 noundef %1)
  %4 = tail call noundef i64 @strlen(ptr noundef nonnull dereferenceable(1) %3) #9
  %5 = tail call noundef nonnull align 8 dereferenceable(8) ptr @_ZSt16__ostream_insertIcSt11char_traitsIcEERSt13basic_ostreamIT_T0_ES6_PKS3_l(ptr noundef nonnull align 8 dereferenceable(8) %0, ptr noundef nonnull %3, i64 noundef %4)
  ret ptr %0
}

declare noundef nonnull align 8 dereferenceable(8) ptr @_ZSt16__ostream_insertIcSt11char_traitsIcEERSt13basic_ostreamIT_T0_ES6_PKS3_l(ptr noundef nonnull align 8 dereferenceable(8), ptr noundef, i64 noundef) local_unnamed_addr #0

; Function Attrs: mustprogress nofree nounwind willreturn memory(argmem: read)
declare i64 @strlen(ptr noundef captures(none)) local_unnamed_addr #7

; Function Attrs: uwtable
define internal void @_GLOBAL__sub_I_rewrite_proof_status.cpp() #8 section ".text.startup" {
  tail call void @_ZNSt8ios_base4InitC1Ev(ptr noundef nonnull align 1 dereferenceable(1) @_ZStL8__ioinit)
  %1 = tail call i32 @__cxa_atexit(ptr nonnull @_ZNSt8ios_base4InitD1Ev, ptr nonnull @_ZStL8__ioinit, ptr nonnull @__dso_handle) #9
  ret void
}


!llvm.module.flags = !{!0, !1, !2}

!0 = !{i32 1, !"wchar_size", i32 4}
!1 = !{i32 8, !"PIC Level", i32 2}
!2 = !{i32 7, !"uwtable", i32 2}
